; Function Attrs: nounwind uwtable
define noundef nonnull ptr @l_Array_anyMUnsafe_any___at_Lean_Server_FileWorker_handlePostRequestSpecialCases___spec__4___boxed(ptr noundef %0, ptr noundef %1, ptr noundef %2, ptr noundef %3) local_unnamed_addr #0 {
  %5 = getelementptr i8, ptr %2, i64 8
  %.val20 = load i64, ptr %5, align 8, !tbaa !8
  %6 = ptrtoint ptr %2 to i64
  %7 = and i64 %6, 1
  %.not = icmp eq i64 %7, 0
  br i1 %.not, label %8, label %lean_dec.exit13

8:                                                ; preds = %4
  %9 = load i32, ptr %2, align 4, !tbaa !10
  %10 = icmp sgt i32 %9, 1
  br i1 %10, label %11, label %13, !prof !13

11:                                               ; preds = %8
  %12 = add nsw i32 %9, -1
  store i32 %12, ptr %2, align 4, !tbaa !10
  br label %lean_dec.exit13

13:                                               ; preds = %8
  %.not.i = icmp eq i32 %9, 0
  br i1 %.not.i, label %lean_dec.exit13, label %14

14:                                               ; preds = %13
  tail call void @lean_dec_ref_cold(ptr noundef nonnull %2) #7
  br label %lean_dec.exit13

lean_dec.exit13:                                  ; preds = %14, %13, %11, %4
  %15 = getelementptr i8, ptr %3, i64 8
  %.val = load i64, ptr %15, align 8, !tbaa !8
  %16 = ptrtoint ptr %3 to i64
  %17 = and i64 %16, 1
  %.not22 = icmp eq i64 %17, 0
  br i1 %.not22, label %18, label %lean_dec.exit12

18:                                               ; preds = %lean_dec.exit13
  %19 = load i32, ptr %3, align 4, !tbaa !10
  %20 = icmp sgt i32 %19, 1
  br i1 %20, label %21, label %23, !prof !13

21:                                               ; preds = %18
  %22 = add nsw i32 %19, -1
  store i32 %22, ptr %3, align 4, !tbaa !10
  br label %lean_dec.exit12

23:                                               ; preds = %18
  %.not.i14 = icmp eq i32 %19, 0
  br i1 %.not.i14, label %lean_dec.exit12, label %24

24:                                               ; preds = %23
  tail call void @lean_dec_ref_cold(ptr noundef nonnull %3) #7
  br label %lean_dec.exit12

lean_dec.exit12:                                  ; preds = %24, %23, %21, %lean_dec.exit13
  %.not29.i = icmp eq i64 %.val20, %.val
  br i1 %.not29.i, label %l_Array_anyMUnsafe_any___at_Lean_Server_FileWorker_handlePostRequestSpecialCases___spec__4.exit, label %.lr.ph.i

.lr.ph.i:                                         ; preds = %lean_dec.exit12
  %25 = getelementptr inbounds nuw i8, ptr %1, i64 24
  %26 = getelementptr i8, ptr %0, i64 8
  br label %29

27:                                               ; preds = %lean_dec.exit.i
  %28 = add i64 %.01530.i, 1
  %.not.i21 = icmp eq i64 %28, %.val
  br i1 %.not.i21, label %l_Array_anyMUnsafe_any___at_Lean_Server_FileWorker_handlePostRequestSpecialCases___spec__4.exit, label %29

29:                                               ; preds = %27, %.lr.ph.i
  %.01530.i = phi i64 [ %.val20, %.lr.ph.i ], [ %28, %27 ]
  %30 = getelementptr inbounds nuw [0 x ptr], ptr %25, i64 0, i64 %.01530.i
  %31 = load ptr, ptr %30, align 8, !tbaa !4
  %32 = ptrtoint ptr %31 to i64
  %33 = and i64 %32, 1
  %.not.i20.i = icmp eq i64 %33, 0
  br i1 %.not.i20.i, label %34, label %lean_array_uget.exit.i

34:                                               ; preds = %29
  %.val.i.i.i = load i32, ptr %31, align 4, !tbaa !10
  %35 = icmp sgt i32 %.val.i.i.i, 0
  br i1 %35, label %36, label %38, !prof !13

36:                                               ; preds = %34
  %37 = add nuw i32 %.val.i.i.i, 1
  store i32 %37, ptr %31, align 4, !tbaa !10
  br label %lean_array_uget.exit.i

38:                                               ; preds = %34
  %.not.i.i.i = icmp eq i32 %.val.i.i.i, 0
  br i1 %.not.i.i.i, label %lean_array_uget.exit.i, label %39

39:                                               ; preds = %38
  tail call void @lean_inc_ref_cold(ptr noundef nonnull %31) #7
  br label %lean_array_uget.exit.i

lean_array_uget.exit.i:                           ; preds = %39, %38, %36, %29
  %40 = icmp eq ptr %0, %31
  br i1 %40, label %lean_string_dec_eq.exit.i, label %41

41:                                               ; preds = %lean_array_uget.exit.i
  %.val.i.i21.i = load i64, ptr %26, align 8, !tbaa !8
  %42 = getelementptr i8, ptr %31, i64 8
  %.val7.i.i.i = load i64, ptr %42, align 8, !tbaa !8
  %43 = icmp eq i64 %.val.i.i21.i, %.val7.i.i.i
  br i1 %43, label %44, label %lean_string_dec_eq.exit.i

44:                                               ; preds = %41
  %45 = tail call zeroext i1 @lean_string_eq_cold(ptr noundef nonnull %0, ptr noundef nonnull %31) #7
  %46 = xor i1 %45, true
  br label %lean_string_dec_eq.exit.i

lean_string_dec_eq.exit.i:                        ; preds = %44, %41, %lean_array_uget.exit.i
  %47 = phi i1 [ false, %lean_array_uget.exit.i ], [ true, %41 ], [ %46, %44 ]
  br i1 %.not.i20.i, label %48, label %lean_dec.exit.i

48:                                               ; preds = %lean_string_dec_eq.exit.i
  %49 = load i32, ptr %31, align 4, !tbaa !10
  %50 = icmp sgt i32 %49, 1
  br i1 %50, label %51, label %53, !prof !13

51:                                               ; preds = %48
  %52 = add nsw i32 %49, -1
  store i32 %52, ptr %31, align 4, !tbaa !10
  br label %lean_dec.exit.i

53:                                               ; preds = %48
  %.not.i.i = icmp eq i32 %49, 0
  br i1 %.not.i.i, label %lean_dec.exit.i, label %54

54:                                               ; preds = %53
  tail call void @lean_dec_ref_cold(ptr noundef nonnull %31) #7
  br label %lean_dec.exit.i

lean_dec.exit.i:                                  ; preds = %54, %53, %51, %lean_string_dec_eq.exit.i
  br i1 %47, label %27, label %l_Array_anyMUnsafe_any___at_Lean_Server_FileWorker_handlePostRequestSpecialCases___spec__4.exit

l_Array_anyMUnsafe_any___at_Lean_Server_FileWorker_handlePostRequestSpecialCases___spec__4.exit: ; preds = %27, %lean_dec.exit.i, %lean_dec.exit12
  %.2.ph.i = phi i64 [ 1, %lean_dec.exit12 ], [ 1, %27 ], [ 3, %lean_dec.exit.i ]
  %55 = ptrtoint ptr %1 to i64
  %56 = and i64 %55, 1
  %.not23 = icmp eq i64 %56, 0
  br i1 %.not23, label %57, label %lean_dec.exit11

57:                                               ; preds = %l_Array_anyMUnsafe_any___at_Lean_Server_FileWorker_handlePostRequestSpecialCases___spec__4.exit
  %58 = load i32, ptr %1, align 4, !tbaa !10
  %59 = icmp sgt i32 %58, 1
  br i1 %59, label %60, label %62, !prof !13

60:                                               ; preds = %57
  %61 = add nsw i32 %58, -1
  store i32 %61, ptr %1, align 4, !tbaa !10
  br label %lean_dec.exit11

62:                                               ; preds = %57
  %.not.i16 = icmp eq i32 %58, 0
  br i1 %.not.i16, label %lean_dec.exit11, label %63

63:                                               ; preds = %62
  tail call void @lean_dec_ref_cold(ptr noundef nonnull %1) #7
  br label %lean_dec.exit11

lean_dec.exit11:                                  ; preds = %63, %62, %60, %l_Array_anyMUnsafe_any___at_Lean_Server_FileWorker_handlePostRequestSpecialCases___spec__4.exit
  %64 = ptrtoint ptr %0 to i64
  %65 = and i64 %64, 1
  %.not24 = icmp eq i64 %65, 0
  br i1 %.not24, label %66, label %lean_dec.exit

66:                                               ; preds = %lean_dec.exit11
  %67 = load i32, ptr %0, align 4, !tbaa !10
  %68 = icmp sgt i32 %67, 1
  br i1 %68, label %69, label %71, !prof !13

69:                                               ; preds = %66
  %70 = add nsw i32 %67, -1
  store i32 %70, ptr %0, align 4, !tbaa !10
  br label %lean_dec.exit

71:                                               ; preds = %66
  %.not.i18 = icmp eq i32 %67, 0
  br i1 %.not.i18, label %lean_dec.exit, label %72

72:                                               ; preds = %71
  tail call void @lean_dec_ref_cold(ptr noundef nonnull %0) #7
  br label %lean_dec.exit

lean_dec.exit:                                    ; preds = %72, %71, %69, %lean_dec.exit11
  %73 = inttoptr i64 %.2.ph.i to ptr
  ret ptr %73
}